; Function Attrs: mustprogress nofree norecurse nosync nounwind willreturn memory(readwrite, inaccessiblemem: none) uwtable
define hidden void @_ZN3vas2ot8Tracklet22UpdateLatestTrajectoryERKN2cv5Rect_IfEES6_(ptr noundef nonnull readonly align 8 captures(none) dereferenceable(248) %0, ptr noundef nonnull readonly align 4 captures(none) dereferenceable(16) %1, ptr noundef nonnull readonly align 4 captures(none) dereferenceable(16) %2) local_unnamed_addr #3 align 2 {
  %4 = getelementptr inbounds nuw i8, ptr %0, i64 96
  %5 = load ptr, ptr %4, align 8, !tbaa !45, !noalias !60
  %6 = getelementptr inbounds nuw i8, ptr %0, i64 104
  %7 = load ptr, ptr %6, align 8, !tbaa !49, !noalias !60
  %8 = icmp eq ptr %5, %7
  br i1 %8, label %9, label %_ZNSt5dequeIN2cv5Rect_IfEESaIS2_EE4backEv.exit

9:                                                ; preds = %3
  %10 = getelementptr inbounds nuw i8, ptr %0, i64 120
  %11 = load ptr, ptr %10, align 8, !tbaa !51, !noalias !60
  %12 = getelementptr inbounds i8, ptr %11, i64 -8
  %13 = load ptr, ptr %12, align 8, !tbaa !34
  %14 = getelementptr inbounds nuw i8, ptr %13, i64 512
  br label %_ZNSt5dequeIN2cv5Rect_IfEESaIS2_EE4backEv.exit

_ZNSt5dequeIN2cv5Rect_IfEESaIS2_EE4backEv.exit:   ; preds = %3, %9
  %15 = phi ptr [ %14, %9 ], [ %5, %3 ]
  %16 = getelementptr inbounds i8, ptr %15, i64 -16
  tail call void @llvm.memcpy.p0.p0.i64(ptr noundef nonnull align 4 dereferenceable(16) %16, ptr noundef nonnull align 4 dereferenceable(16) %1, i64 16, i1 false), !tbaa.struct !58
  %17 = getelementptr inbounds nuw i8, ptr %0, i64 176
  %18 = load ptr, ptr %17, align 8, !tbaa !45, !noalias !63
  %19 = getelementptr inbounds nuw i8, ptr %0, i64 184
  %20 = load ptr, ptr %19, align 8, !tbaa !49, !noalias !63
  %21 = icmp eq ptr %18, %20
  br i1 %21, label %22, label %_ZNSt5dequeIN2cv5Rect_IfEESaIS2_EE4backEv.exit3

22:                                               ; preds = %_ZNSt5dequeIN2cv5Rect_IfEESaIS2_EE4backEv.exit
  %23 = getelementptr inbounds nuw i8, ptr %0, i64 200
  %24 = load ptr, ptr %23, align 8, !tbaa !51, !noalias !63
  %25 = getelementptr inbounds i8, ptr %24, i64 -8
  %26 = load ptr, ptr %25, align 8, !tbaa !34
  %27 = getelementptr inbounds nuw i8, ptr %26, i64 512
  br label %_ZNSt5dequeIN2cv5Rect_IfEESaIS2_EE4backEv.exit3

_ZNSt5dequeIN2cv5Rect_IfEESaIS2_EE4backEv.exit3:  ; preds = %_ZNSt5dequeIN2cv5Rect_IfEESaIS2_EE4backEv.exit, %22
  %28 = phi ptr [ %27, %22 ], [ %18, %_ZNSt5dequeIN2cv5Rect_IfEESaIS2_EE4backEv.exit ]
  %29 = getelementptr inbounds i8, ptr %28, i64 -16
  tail call void @llvm.memcpy.p0.p0.i64(ptr noundef nonnull align 4 dereferenceable(16) %29, ptr noundef nonnull align 4 dereferenceable(16) %2, i64 16, i1 false), !tbaa.struct !58
  ret void
}